target datalayout = "e-m:e-p270:32:32-p271:32:32-p272:64:64-i64:64-i128:128-f80:128-n8:16:32:64-S128"
target triple = "x86_64-pc-linux-gnu"

%struct._cairo_rectangle_int = type { i32, i32, i32, i32 }

; Function Attrs: nounwind uwtable
define internal void @size_allocate_callback(ptr noundef %0, ptr noundef %1, ptr noundef %2) #0 {
  %4 = alloca ptr, align 8
  %5 = alloca ptr, align 8
  %6 = alloca ptr, align 8
  %7 = alloca ptr, align 8
  store ptr %0, ptr %4, align 8, !tbaa !38
  store ptr %1, ptr %5, align 8, !tbaa !101
  store ptr %2, ptr %6, align 8, !tbaa !62
  call void @llvm.lifetime.start.p0(i64 8, ptr %7) #15
  %8 = load ptr, ptr %6, align 8, !tbaa !62
  store ptr %8, ptr %7, align 8, !tbaa !48
  %9 = load ptr, ptr %7, align 8, !tbaa !48
  %10 = load ptr, ptr %5, align 8, !tbaa !101
  %11 = getelementptr inbounds nuw %struct._cairo_rectangle_int, ptr %10, i32 0, i32 2
  %12 = load i32, ptr %11, align 4, !tbaa !103
  %13 = sitofp i32 %12 to float
  %14 = load ptr, ptr %5, align 8, !tbaa !101
  %15 = getelementptr inbounds nuw %struct._cairo_rectangle_int, ptr %14, i32 0, i32 3
  %16 = load i32, ptr %15, align 4, !tbaa !105
  %17 = sitofp i32 %16 to float
  call void @set_offset_and_scale(ptr noundef %9, float noundef %13, float noundef %17)
  call void @llvm.lifetime.end.p0(i64 8, ptr %7) #15
  ret void
}