; Function Attrs: nounwind uwtable
define internal void @size_allocate_callback(ptr readnone captures(none) %0, ptr noundef readonly captures(none) %1, ptr noundef %2) #0 {
  %4 = getelementptr inbounds nuw i8, ptr %1, i64 8
  %5 = load i32, ptr %4, align 4, !tbaa !84
  %6 = sitofp i32 %5 to float
  %7 = getelementptr inbounds nuw i8, ptr %1, i64 12
  %8 = load i32, ptr %7, align 4, !tbaa !86
  %9 = sitofp i32 %8 to float
  tail call void @set_offset_and_scale(ptr noundef %2, float noundef %6, float noundef %9) #24
  ret void
}